; Function Attrs: mustprogress uwtable
define noundef i32 @_ZN3gmx24CommandLineModuleManager14runAsMainCMainEiPPcPFiiS2_E(i32 noundef %0, ptr noundef %1, ptr noundef %2) local_unnamed_addr #0 align 2 personality ptr @__gxx_personality_v0 {
  %4 = alloca %"class.gmx::(anonymous namespace)::CMainCommandLineModule", align 8
  %5 = load ptr, ptr %1, align 8
  store ptr getelementptr inbounds inrange(-16, 56) ({ [9 x ptr] }, ptr @_ZTVN3gmx12_GLOBAL__N_122CMainCommandLineModuleE, i64 0, i32 0, i64 2), ptr %4, align 8
  %6 = getelementptr inbounds i8, ptr %4, i64 8
  store ptr %5, ptr %6, align 8
  %7 = getelementptr inbounds i8, ptr %4, i64 16
  store ptr null, ptr %7, align 8
  %8 = getelementptr inbounds i8, ptr %4, i64 24
  store ptr %2, ptr %8, align 8
  %9 = getelementptr inbounds i8, ptr %4, i64 32
  store ptr null, ptr %9, align 8
  %10 = call noundef i32 @_ZN3gmx24CommandLineModuleManager21runAsMainSingleModuleEiPPcPNS_18ICommandLineModuleE(i32 noundef %0, ptr noundef nonnull %1, ptr noundef nonnull %4)
  ret i32 %10
}